(dp0
S'launcher'
p1
(dp2
S'ssh_key_name'
p3
S'aws_rsa'
p4
sS'ssh_key_pair_file'
p5
S'~/.ssh/aws_rsa'
p6
sS'key_id'
p7
S'AKIAJSLYJUI5HXWQEDLQ'
p8
sS'secret_key'
p9
S'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'
p10
sS'ID'
p11
S'Chuan'
p12
sS'security_groups'
p13
(lp14
S'CSE291'
p15
assS'mrjob'
p16
(dp17
g7
S'AKIAIUULOQ2W5CK2S4CQ'
p18
sg9
S'8HtRCDgkdFtqqm2dm2xm1w/6v366i7XkJ1DzuJ2X'
p19
sS's3_scratch'
p20
S's3://yoav.hadoop/scratch/'
p21
sg11
S'chw124'
p22
sS's3_logs'
p23
S's3://yoav.hadoop/logs/'
p24
ss.